; Function Attrs: nounwind uwtable
define range(i32 -5, 1) i32 @ff_oss_audio_open(ptr noundef %0, i32 noundef %1, ptr noundef %2) local_unnamed_addr #0 {
  %4 = alloca i32, align 4
  %5 = alloca [64 x i8], align 1
  %6 = alloca [64 x i8], align 1
  %7 = alloca [64 x i8], align 1
  %8 = alloca [64 x i8], align 1
  %9 = alloca [64 x i8], align 1
  %10 = alloca [64 x i8], align 1
  %11 = getelementptr inbounds nuw i8, ptr %0, i64 24
  %12 = load ptr, ptr %11, align 8, !tbaa !4
  call void @llvm.lifetime.start.p0(i64 4, ptr nonnull %4) #7
  %13 = tail call ptr @getenv(ptr noundef nonnull @.str) #7
  %.not = icmp ne i32 %1, 0
  %. = zext i1 %.not to i32
  %14 = tail call i32 (ptr, i32, ...) @avpriv_open(ptr noundef %2, i32 noundef %.) #7
  %15 = icmp slt i32 %14, 0
  br i1 %15, label %16, label %21

16:                                               ; preds = %3
  call void @llvm.memset.p0.i64(ptr noundef nonnull align 1 dereferenceable(64) %5, i8 0, i64 64, i1 false)
  %17 = tail call ptr @__errno_location() #8
  %18 = load i32, ptr %17, align 4, !tbaa !24
  %19 = sub nsw i32 0, %18
  %20 = call i32 @av_strerror(i32 noundef range(i32 -2147483647, -2147483648) %19, ptr noundef nonnull %5, i64 noundef 64) #7
  call void (ptr, i32, ptr, ...) @av_log(ptr noundef nonnull %0, i32 noundef 16, ptr noundef nonnull @.str.1, ptr noundef %2, ptr noundef nonnull %5) #7
  br label %91

21:                                               ; preds = %3
  %.not41 = icmp eq ptr %13, null
  br i1 %.not41, label %29, label %22

22:                                               ; preds = %21
  %23 = load i8, ptr %13, align 1, !tbaa !25
  %24 = icmp eq i8 %23, 49
  br i1 %24, label %25, label %29

25:                                               ; preds = %22
  %26 = getelementptr inbounds nuw i8, ptr %12, i64 32
  %27 = load i8, ptr %26, align 8
  %28 = or i8 %27, 1
  store i8 %28, ptr %26, align 8
  br label %29

29:                                               ; preds = %25, %22, %21
  br i1 %.not, label %38, label %30

30:                                               ; preds = %29
  %31 = tail call i32 (i32, i32, ...) @fcntl64(i32 noundef %14, i32 noundef 4, i32 noundef 2048) #7
  %32 = icmp slt i32 %31, 0
  br i1 %32, label %33, label %38

33:                                               ; preds = %30
  call void @llvm.memset.p0.i64(ptr noundef nonnull align 1 dereferenceable(64) %6, i8 0, i64 64, i1 false)
  %34 = tail call ptr @__errno_location() #8
  %35 = load i32, ptr %34, align 4, !tbaa !24
  %36 = sub nsw i32 0, %35
  %37 = call i32 @av_strerror(i32 noundef range(i32 -2147483647, -2147483648) %36, ptr noundef nonnull %6, i64 noundef 64) #7
  call void (ptr, i32, ptr, ...) @av_log(ptr noundef nonnull %0, i32 noundef 24, ptr noundef nonnull @.str.2, ptr noundef %2, ptr noundef nonnull %6) #7
  br label %38

38:                                               ; preds = %30, %33, %29
  %39 = getelementptr inbounds nuw i8, ptr %12, i64 24
  store i32 4096, ptr %39, align 8, !tbaa !26
  %40 = call i32 (i32, i64, ...) @ioctl(i32 noundef %14, i64 noundef 2147766283, ptr noundef nonnull %4) #7
  %41 = icmp slt i32 %40, 0
  br i1 %41, label %42, label %47

42:                                               ; preds = %38
  call void @llvm.memset.p0.i64(ptr noundef nonnull align 1 dereferenceable(64) %7, i8 0, i64 64, i1 false)
  %43 = tail call ptr @__errno_location() #8
  %44 = load i32, ptr %43, align 4, !tbaa !24
  %45 = sub nsw i32 0, %44
  %46 = call i32 @av_strerror(i32 noundef range(i32 -2147483647, -2147483648) %45, ptr noundef nonnull %7, i64 noundef 64) #7
  call void (ptr, i32, ptr, ...) @av_log(ptr noundef nonnull %0, i32 noundef 24, ptr noundef nonnull @.str.3, ptr noundef nonnull %7) #7
  br label %47

47:                                               ; preds = %42, %38
  %48 = load i32, ptr %4, align 4, !tbaa !24
  %49 = and i32 %48, 16
  %.not42 = icmp eq i32 %49, 0
  br i1 %.not42, label %50, label %54

50:                                               ; preds = %47
  %51 = and i32 %48, 32
  %.not43 = icmp eq i32 %51, 0
  br i1 %.not43, label %52, label %54

52:                                               ; preds = %50
  store i32 0, ptr %4, align 4, !tbaa !24
  call void (ptr, i32, ptr, ...) @av_log(ptr noundef nonnull %0, i32 noundef 16, ptr noundef nonnull @.str.4) #7
  %53 = call i32 @close(i32 noundef %14) #7
  br label %91

54:                                               ; preds = %50, %47
  %.sink48 = phi i32 [ 16, %47 ], [ 32, %50 ]
  %.sink46 = phi i32 [ 65536, %47 ], [ 65537, %50 ]
  store i32 %.sink48, ptr %4, align 4, !tbaa !24
  %55 = getelementptr inbounds nuw i8, ptr %12, i64 28
  store i32 %.sink46, ptr %55, align 4, !tbaa !28
  %56 = getelementptr inbounds nuw i8, ptr %12, i64 16
  store i32 2, ptr %56, align 8, !tbaa !29
  %57 = call i32 (i32, i64, ...) @ioctl(i32 noundef %14, i64 noundef 3221508101, ptr noundef nonnull %4) #7
  %58 = icmp slt i32 %57, 0
  br i1 %58, label %59, label %64

59:                                               ; preds = %54
  call void @llvm.memset.p0.i64(ptr noundef nonnull align 1 dereferenceable(64) %8, i8 0, i64 64, i1 false)
  %60 = tail call ptr @__errno_location() #8
  %61 = load i32, ptr %60, align 4, !tbaa !24
  %62 = sub nsw i32 0, %61
  %63 = call i32 @av_strerror(i32 noundef range(i32 -2147483647, -2147483648) %62, ptr noundef nonnull %8, i64 noundef 64) #7
  call void (ptr, i32, ptr, ...) @av_log(ptr noundef nonnull %0, i32 noundef 16, ptr noundef nonnull @.str.5, ptr noundef nonnull %8) #7
  br label %89

64:                                               ; preds = %54
  %65 = getelementptr inbounds nuw i8, ptr %12, i64 20
  %66 = load i32, ptr %65, align 4, !tbaa !30
  %67 = icmp eq i32 %66, 2
  %68 = zext i1 %67 to i32
  store i32 %68, ptr %4, align 4, !tbaa !24
  %69 = call i32 (i32, i64, ...) @ioctl(i32 noundef %14, i64 noundef 3221508099, ptr noundef nonnull %4) #7
  %70 = icmp slt i32 %69, 0
  br i1 %70, label %71, label %76

71:                                               ; preds = %64
  call void @llvm.memset.p0.i64(ptr noundef nonnull align 1 dereferenceable(64) %9, i8 0, i64 64, i1 false)
  %72 = tail call ptr @__errno_location() #8
  %73 = load i32, ptr %72, align 4, !tbaa !24
  %74 = sub nsw i32 0, %73
  %75 = call i32 @av_strerror(i32 noundef range(i32 -2147483647, -2147483648) %74, ptr noundef nonnull %9, i64 noundef 64) #7
  call void (ptr, i32, ptr, ...) @av_log(ptr noundef nonnull %0, i32 noundef 16, ptr noundef nonnull @.str.6, ptr noundef nonnull %9) #7
  br label %89

76:                                               ; preds = %64
  %77 = getelementptr inbounds nuw i8, ptr %12, i64 12
  %78 = load i32, ptr %77, align 4, !tbaa !31
  store i32 %78, ptr %4, align 4, !tbaa !24
  %79 = call i32 (i32, i64, ...) @ioctl(i32 noundef %14, i64 noundef 3221508098, ptr noundef nonnull %4) #7
  %80 = icmp slt i32 %79, 0
  br i1 %80, label %81, label %86

81:                                               ; preds = %76
  call void @llvm.memset.p0.i64(ptr noundef nonnull align 1 dereferenceable(64) %10, i8 0, i64 64, i1 false)
  %82 = tail call ptr @__errno_location() #8
  %83 = load i32, ptr %82, align 4, !tbaa !24
  %84 = sub nsw i32 0, %83
  %85 = call i32 @av_strerror(i32 noundef range(i32 -2147483647, -2147483648) %84, ptr noundef nonnull %10, i64 noundef 64) #7
  call void (ptr, i32, ptr, ...) @av_log(ptr noundef nonnull %0, i32 noundef 16, ptr noundef nonnull @.str.7, ptr noundef nonnull %10) #7
  br label %89

86:                                               ; preds = %76
  %87 = load i32, ptr %4, align 4, !tbaa !24
  store i32 %87, ptr %77, align 4, !tbaa !31
  %88 = getelementptr inbounds nuw i8, ptr %12, i64 8
  store i32 %14, ptr %88, align 8, !tbaa !32
  br label %91

89:                                               ; preds = %81, %71, %59
  %90 = call i32 @close(i32 noundef %14) #7
  br label %91

91:                                               ; preds = %89, %86, %52, %16
  %.0 = phi i32 [ -5, %16 ], [ -5, %52 ], [ -5, %89 ], [ 0, %86 ]
  call void @llvm.lifetime.end.p0(i64 4, ptr nonnull %4) #7
  ret i32 %.0
}